target datalayout = "e-m:e-p270:32:32-p271:32:32-p272:64:64-i64:64-i128:128-f80:128-n8:16:32:64-S128"
target triple = "x86_64-pc-linux-gnu"

%struct.AVRational = type { i32, i32 }

; Function Attrs: nounwind uwtable
define i32 @av_compare_ts(i64 noundef %0, i64 %1, i64 noundef %2, i64 %3) #4 {
  %5 = alloca i32, align 4
  %6 = alloca %struct.AVRational, align 4
  %7 = alloca %struct.AVRational, align 4
  %8 = alloca i64, align 8
  %9 = alloca i64, align 8
  %10 = alloca i64, align 8
  %11 = alloca i64, align 8
  %12 = alloca i32, align 4
  store i64 %1, ptr %6, align 4
  store i64 %3, ptr %7, align 4
  store i64 %0, ptr %8, align 8, !tbaa !4
  store i64 %2, ptr %9, align 8, !tbaa !4
  call void @llvm.lifetime.start.p0(i64 8, ptr %10) #11
  %13 = getelementptr inbounds nuw %struct.AVRational, ptr %6, i32 0, i32 0
  %14 = load i32, ptr %13, align 4, !tbaa !16
  %15 = sext i32 %14 to i64
  %16 = getelementptr inbounds nuw %struct.AVRational, ptr %7, i32 0, i32 1
  %17 = load i32, ptr %16, align 4, !tbaa !18
  %18 = sext i32 %17 to i64
  %19 = mul nsw i64 %15, %18
  store i64 %19, ptr %10, align 8, !tbaa !4
  call void @llvm.lifetime.start.p0(i64 8, ptr %11) #11
  %20 = getelementptr inbounds nuw %struct.AVRational, ptr %7, i32 0, i32 0
  %21 = load i32, ptr %20, align 4, !tbaa !16
  %22 = sext i32 %21 to i64
  %23 = getelementptr inbounds nuw %struct.AVRational, ptr %6, i32 0, i32 1
  %24 = load i32, ptr %23, align 4, !tbaa !18
  %25 = sext i32 %24 to i64
  %26 = mul nsw i64 %22, %25
  store i64 %26, ptr %11, align 8, !tbaa !4
  %27 = load i64, ptr %8, align 8, !tbaa !4
  %28 = icmp sle i64 %27, 0
  br i1 %28, label %29, label %32

29:                                               ; preds = %4
  %30 = load i64, ptr %8, align 8, !tbaa !4
  %31 = sub i64 0, %30
  br label %34

32:                                               ; preds = %4
  %33 = load i64, ptr %8, align 8, !tbaa !4
  br label %34

34:                                               ; preds = %32, %29
  %35 = phi i64 [ %31, %29 ], [ %33, %32 ]
  %36 = load i64, ptr %10, align 8, !tbaa !4
  %37 = or i64 %35, %36
  %38 = load i64, ptr %9, align 8, !tbaa !4
  %39 = icmp sle i64 %38, 0
  br i1 %39, label %40, label %43

40:                                               ; preds = %34
  %41 = load i64, ptr %9, align 8, !tbaa !4
  %42 = sub i64 0, %41
  br label %45

43:                                               ; preds = %34
  %44 = load i64, ptr %9, align 8, !tbaa !4
  br label %45

45:                                               ; preds = %43, %40
  %46 = phi i64 [ %42, %40 ], [ %44, %43 ]
  %47 = or i64 %37, %46
  %48 = load i64, ptr %11, align 8, !tbaa !4
  %49 = or i64 %47, %48
  %50 = icmp ule i64 %49, 2147483647
  br i1 %50, label %51, label %69

51:                                               ; preds = %45
  %52 = load i64, ptr %8, align 8, !tbaa !4
  %53 = load i64, ptr %10, align 8, !tbaa !4
  %54 = mul nsw i64 %52, %53
  %55 = load i64, ptr %9, align 8, !tbaa !4
  %56 = load i64, ptr %11, align 8, !tbaa !4
  %57 = mul nsw i64 %55, %56
  %58 = icmp sgt i64 %54, %57
  %59 = zext i1 %58 to i32
  %60 = load i64, ptr %8, align 8, !tbaa !4
  %61 = load i64, ptr %10, align 8, !tbaa !4
  %62 = mul nsw i64 %60, %61
  %63 = load i64, ptr %9, align 8, !tbaa !4
  %64 = load i64, ptr %11, align 8, !tbaa !4
  %65 = mul nsw i64 %63, %64
  %66 = icmp slt i64 %62, %65
  %67 = zext i1 %66 to i32
  %68 = sub nsw i32 %59, %67
  store i32 %68, ptr %5, align 4
  store i32 1, ptr %12, align 4
  br label %86

69:                                               ; preds = %45
  %70 = load i64, ptr %8, align 8, !tbaa !4
  %71 = load i64, ptr %10, align 8, !tbaa !4
  %72 = load i64, ptr %11, align 8, !tbaa !4
  %73 = call i64 @av_rescale_rnd(i64 noundef %70, i64 noundef %71, i64 noundef %72, i32 noundef 2) #12
  %74 = load i64, ptr %9, align 8, !tbaa !4
  %75 = icmp slt i64 %73, %74
  br i1 %75, label %76, label %77

76:                                               ; preds = %69
  store i32 -1, ptr %5, align 4
  store i32 1, ptr %12, align 4
  br label %86

77:                                               ; preds = %69
  %78 = load i64, ptr %9, align 8, !tbaa !4
  %79 = load i64, ptr %11, align 8, !tbaa !4
  %80 = load i64, ptr %10, align 8, !tbaa !4
  %81 = call i64 @av_rescale_rnd(i64 noundef %78, i64 noundef %79, i64 noundef %80, i32 noundef 2) #12
  %82 = load i64, ptr %8, align 8, !tbaa !4
  %83 = icmp slt i64 %81, %82
  br i1 %83, label %84, label %85

84:                                               ; preds = %77
  store i32 1, ptr %5, align 4
  store i32 1, ptr %12, align 4
  br label %86

85:                                               ; preds = %77
  store i32 0, ptr %5, align 4
  store i32 1, ptr %12, align 4
  br label %86

86:                                               ; preds = %85, %84, %76, %51
  call void @llvm.lifetime.end.p0(i64 8, ptr %11) #11
  call void @llvm.lifetime.end.p0(i64 8, ptr %10) #11
  %87 = load i32, ptr %5, align 4
  ret i32 %87
}