; Function Attrs: nofree nosync nounwind memory(none) uwtable
define range(i32 -1, 2) i32 @av_compare_ts(i64 noundef %0, i64 %1, i64 noundef %2, i64 %3) local_unnamed_addr #3 {
  %sext = shl i64 %1, 32
  %5 = ashr exact i64 %sext, 32
  %6 = ashr i64 %3, 32
  %7 = mul nsw i64 %6, %5
  %sext29 = shl i64 %3, 32
  %8 = ashr exact i64 %sext29, 32
  %9 = ashr i64 %1, 32
  %10 = mul nsw i64 %8, %9
  %11 = tail call i64 @llvm.abs.i64(i64 %0, i1 false)
  %12 = tail call i64 @llvm.abs.i64(i64 %2, i1 false)
  %13 = or i64 %11, %12
  %14 = or i64 %13, %7
  %15 = or i64 %14, %10
  %16 = icmp ult i64 %15, 2147483648
  br i1 %16, label %17, label %21

17:                                               ; preds = %4
  %18 = mul nsw i64 %7, %0
  %19 = mul nsw i64 %10, %2
  %20 = tail call i32 @llvm.scmp.i32.i64(i64 %18, i64 %19)
  br label %135

21:                                               ; preds = %4
  %22 = icmp slt i64 %10, 1
  %23 = icmp slt i64 %7, 0
  %or.cond.i = or i1 %23, %22
  br i1 %or.cond.i, label %av_rescale_rnd.exit, label %24

24:                                               ; preds = %21
  %25 = icmp slt i64 %0, 0
  br i1 %25, label %26, label %31

26:                                               ; preds = %24
  %27 = tail call i64 @llvm.umax.i64(i64 %0, i64 -9223372036854775807)
  %28 = sub nsw i64 0, %27
  %29 = tail call i64 @av_rescale_rnd(i64 noundef %28, i64 noundef %7, i64 noundef %10, i32 noundef 3) #11
  %30 = sub i64 0, %29
  br label %av_rescale_rnd.exit

31:                                               ; preds = %24
  %32 = or i64 %10, %7
  %or.cond5.i = icmp samesign ult i64 %32, 2147483648
  br i1 %or.cond5.i, label %33, label %52

33:                                               ; preds = %31
  %34 = icmp samesign ult i64 %0, 2147483648
  br i1 %34, label %35, label %38

35:                                               ; preds = %33
  %36 = mul nuw nsw i64 %7, %0
  %37 = udiv i64 %36, %10
  br label %av_rescale_rnd.exit

38:                                               ; preds = %33
  %39 = udiv i64 %0, %10
  %40 = urem i64 %0, %10
  %41 = mul nuw nsw i64 %40, %7
  %42 = udiv i64 %41, %10
  %43 = icmp samesign ugt i64 %39, 2147483646
  %44 = icmp ne i64 %7, 0
  %or.cond7.i = and i1 %44, %43
  br i1 %or.cond7.i, label %45, label %49

45:                                               ; preds = %38
  %46 = sub nuw nsw i64 9223372036854775807, %42
  %47 = udiv i64 %46, %7
  %48 = icmp samesign ugt i64 %39, %47
  br i1 %48, label %av_rescale_rnd.exit, label %49

49:                                               ; preds = %45, %38
  %50 = mul nuw nsw i64 %39, %7
  %51 = add nuw nsw i64 %42, %50
  br label %av_rescale_rnd.exit

52:                                               ; preds = %31
  %53 = and i64 %0, 4294967295
  %54 = lshr i64 %0, 32
  %55 = and i64 %7, 4294967295
  %56 = lshr i64 %7, 32
  %57 = mul nuw nsw i64 %56, %53
  %58 = mul nuw nsw i64 %55, %54
  %59 = add nuw i64 %57, %58
  %60 = shl i64 %59, 32
  %61 = mul i64 %7, %0
  %62 = mul nuw nsw i64 %56, %54
  %63 = lshr i64 %59, 32
  %64 = add nuw nsw i64 %63, %62
  %65 = icmp ult i64 %61, %60
  %66 = zext i1 %65 to i64
  %67 = add nuw nsw i64 %64, %66
  br label %68

68:                                               ; preds = %68, %52
  %indvars.iv.i = phi i64 [ 63, %52 ], [ %indvars.iv.next.i, %68 ]
  %.088107.i = phi i64 [ %59, %52 ], [ %.189.i, %68 ]
  %.092106.i = phi i64 [ %67, %52 ], [ %.193.i, %68 ]
  %69 = lshr i64 %61, %indvars.iv.i
  %70 = and i64 %69, 1
  %reass.add.i = shl i64 %.092106.i, 1
  %71 = or disjoint i64 %reass.add.i, %70
  %72 = shl i64 %.088107.i, 1
  %.not104.i = icmp ule i64 %10, %71
  %73 = select i1 %.not104.i, i64 %10, i64 0
  %.193.i = sub nuw i64 %71, %73
  %74 = zext i1 %.not104.i to i64
  %.189.i = or disjoint i64 %72, %74
  %indvars.iv.next.i = add nsw i64 %indvars.iv.i, -1
  %.not110.i = icmp eq i64 %indvars.iv.i, 0
  br i1 %.not110.i, label %75, label %68, !llvm.loop !6

75:                                               ; preds = %68
  %76 = icmp slt i64 %72, 0
  %..088.i = select i1 %76, i64 -9223372036854775808, i64 %.189.i
  br label %av_rescale_rnd.exit

av_rescale_rnd.exit:                              ; preds = %21, %26, %35, %45, %49, %75
  %common.ret.op.i = phi i64 [ %30, %26 ], [ %37, %35 ], [ %..088.i, %75 ], [ -9223372036854775808, %21 ], [ %51, %49 ], [ -9223372036854775808, %45 ]
  %77 = icmp slt i64 %common.ret.op.i, %2
  br i1 %77, label %135, label %78

78:                                               ; preds = %av_rescale_rnd.exit
  %79 = icmp slt i64 %7, 1
  %80 = icmp slt i64 %10, 0
  %or.cond.i31 = or i1 %79, %80
  br i1 %or.cond.i31, label %av_rescale_rnd.exit45, label %81

81:                                               ; preds = %78
  %82 = icmp slt i64 %2, 0
  br i1 %82, label %83, label %88

83:                                               ; preds = %81
  %84 = tail call i64 @llvm.umax.i64(i64 %2, i64 -9223372036854775807)
  %85 = sub nsw i64 0, %84
  %86 = tail call i64 @av_rescale_rnd(i64 noundef %85, i64 noundef %10, i64 noundef %7, i32 noundef 3) #11
  %87 = sub i64 0, %86
  br label %av_rescale_rnd.exit45

88:                                               ; preds = %81
  %89 = or i64 %10, %7
  %or.cond5.i32 = icmp samesign ult i64 %89, 2147483648
  br i1 %or.cond5.i32, label %90, label %109

90:                                               ; preds = %88
  %91 = icmp samesign ult i64 %2, 2147483648
  br i1 %91, label %92, label %95

92:                                               ; preds = %90
  %93 = mul nuw nsw i64 %10, %2
  %94 = udiv i64 %93, %7
  br label %av_rescale_rnd.exit45

95:                                               ; preds = %90
  %96 = udiv i64 %2, %7
  %97 = urem i64 %2, %7
  %98 = mul nuw nsw i64 %97, %10
  %99 = udiv i64 %98, %7
  %100 = icmp samesign ugt i64 %96, 2147483646
  %101 = icmp ne i64 %10, 0
  %or.cond7.i44 = and i1 %101, %100
  br i1 %or.cond7.i44, label %102, label %106

102:                                              ; preds = %95
  %103 = sub nuw nsw i64 9223372036854775807, %99
  %104 = udiv i64 %103, %10
  %105 = icmp samesign ugt i64 %96, %104
  br i1 %105, label %av_rescale_rnd.exit45, label %106

106:                                              ; preds = %102, %95
  %107 = mul nuw nsw i64 %96, %10
  %108 = add nuw nsw i64 %99, %107
  br label %av_rescale_rnd.exit45

109:                                              ; preds = %88
  %110 = and i64 %2, 4294967295
  %111 = lshr i64 %2, 32
  %112 = and i64 %10, 4294967295
  %113 = lshr i64 %10, 32
  %114 = mul nuw nsw i64 %113, %110
  %115 = mul nuw nsw i64 %112, %111
  %116 = add nuw i64 %114, %115
  %117 = shl i64 %116, 32
  %118 = mul i64 %10, %2
  %119 = mul nuw nsw i64 %113, %111
  %120 = lshr i64 %116, 32
  %121 = add nuw nsw i64 %120, %119
  %122 = icmp ult i64 %118, %117
  %123 = zext i1 %122 to i64
  %124 = add nuw nsw i64 %121, %123
  br label %125

125:                                              ; preds = %125, %109
  %indvars.iv.i33 = phi i64 [ 63, %109 ], [ %indvars.iv.next.i40, %125 ]
  %.088107.i34 = phi i64 [ %116, %109 ], [ %.189.i39, %125 ]
  %.092106.i35 = phi i64 [ %124, %109 ], [ %.193.i38, %125 ]
  %126 = lshr i64 %118, %indvars.iv.i33
  %127 = and i64 %126, 1
  %reass.add.i36 = shl i64 %.092106.i35, 1
  %128 = or disjoint i64 %reass.add.i36, %127
  %129 = shl i64 %.088107.i34, 1
  %.not104.i37 = icmp ule i64 %7, %128
  %130 = select i1 %.not104.i37, i64 %7, i64 0
  %.193.i38 = sub nuw i64 %128, %130
  %131 = zext i1 %.not104.i37 to i64
  %.189.i39 = or disjoint i64 %129, %131
  %indvars.iv.next.i40 = add nsw i64 %indvars.iv.i33, -1
  %.not110.i41 = icmp eq i64 %indvars.iv.i33, 0
  br i1 %.not110.i41, label %132, label %125, !llvm.loop !6

132:                                              ; preds = %125
  %133 = icmp slt i64 %129, 0
  %..088.i42 = select i1 %133, i64 -9223372036854775808, i64 %.189.i39
  br label %av_rescale_rnd.exit45

av_rescale_rnd.exit45:                            ; preds = %78, %83, %92, %102, %106, %132
  %common.ret.op.i43 = phi i64 [ %87, %83 ], [ %94, %92 ], [ %..088.i42, %132 ], [ -9223372036854775808, %78 ], [ %108, %106 ], [ -9223372036854775808, %102 ]
  %134 = icmp slt i64 %common.ret.op.i43, %0
  %. = zext i1 %134 to i32
  br label %135

135:                                              ; preds = %av_rescale_rnd.exit45, %av_rescale_rnd.exit, %17
  %.0 = phi i32 [ %20, %17 ], [ -1, %av_rescale_rnd.exit ], [ %., %av_rescale_rnd.exit45 ]
  ret i32 %.0
}